; Function Attrs: mustprogress uwtable
define void @_ZN6icu_775Edits6appendEi(ptr noundef nonnull align 8 dereferenceable(232) %0, i32 noundef %1) local_unnamed_addr #1 align 2 personality ptr @__gxx_personality_v0 {
  %3 = getelementptr inbounds nuw i8, ptr %0, i64 12
  %4 = load i32, ptr %3, align 4, !tbaa !21
  %5 = getelementptr inbounds nuw i8, ptr %0, i64 8
  %6 = load i32, ptr %5, align 8, !tbaa !22
  %7 = icmp slt i32 %4, %6
  %.pre = load ptr, ptr %0, align 8, !tbaa !15
  br i1 %7, label %38, label %8

8:                                                ; preds = %2
  %9 = getelementptr inbounds nuw i8, ptr %0, i64 28
  %10 = icmp eq ptr %.pre, %9
  br i1 %10, label %._crit_edge.i, label %11

11:                                               ; preds = %8
  %12 = icmp eq i32 %6, 2147483647
  br i1 %12, label %13, label %15

13:                                               ; preds = %11
  %14 = getelementptr inbounds nuw i8, ptr %0, i64 24
  store i32 8, ptr %14, align 8, !tbaa !18
  br label %_ZN6icu_775Edits9growArrayEv.exit.thread

15:                                               ; preds = %11
  %16 = icmp sgt i32 %6, 1073741822
  %17 = shl nsw i32 %6, 1
  %spec.select.i = select i1 %16, i32 2147483647, i32 %17
  br label %._crit_edge.i

._crit_edge.i:                                    ; preds = %15, %8
  %.07.i = phi i32 [ %spec.select.i, %15 ], [ 2000, %8 ]
  %18 = sub nsw i32 %.07.i, %6
  %19 = icmp slt i32 %18, 5
  br i1 %19, label %20, label %22

20:                                               ; preds = %._crit_edge.i
  %21 = getelementptr inbounds nuw i8, ptr %0, i64 24
  store i32 8, ptr %21, align 8, !tbaa !18
  br label %_ZN6icu_775Edits9growArrayEv.exit.thread

22:                                               ; preds = %._crit_edge.i
  %23 = sext i32 %.07.i to i64
  %24 = shl nsw i64 %23, 1
  %25 = tail call noalias ptr @uprv_malloc_77(i64 noundef %24) #17
  %26 = icmp eq ptr %25, null
  br i1 %26, label %27, label %29

27:                                               ; preds = %22
  %28 = getelementptr inbounds nuw i8, ptr %0, i64 24
  store i32 7, ptr %28, align 8, !tbaa !18
  br label %_ZN6icu_775Edits9growArrayEv.exit.thread

29:                                               ; preds = %22
  %30 = load ptr, ptr %0, align 8, !tbaa !15
  %31 = load i32, ptr %3, align 4, !tbaa !21
  %32 = sext i32 %31 to i64
  %33 = shl nsw i64 %32, 1
  tail call void @llvm.memcpy.p0.p0.i64(ptr nonnull align 2 %25, ptr align 2 %30, i64 %33, i1 false)
  %.not.i.i = icmp eq ptr %30, %9
  br i1 %.not.i.i, label %_ZN6icu_775Edits9growArrayEv.exit, label %34

34:                                               ; preds = %29
  invoke void @uprv_free_77(ptr noundef %30)
          to label %._ZN6icu_775Edits9growArrayEv.exit_crit_edge unwind label %35

._ZN6icu_775Edits9growArrayEv.exit_crit_edge:     ; preds = %34
  %.pre3.pre = load i32, ptr %3, align 4, !tbaa !21
  br label %_ZN6icu_775Edits9growArrayEv.exit

35:                                               ; preds = %34
  %36 = landingpad { ptr, i32 }
          catch ptr null
  %37 = extractvalue { ptr, i32 } %36, 0
  tail call void @__clang_call_terminate(ptr %37) #18
  unreachable

_ZN6icu_775Edits9growArrayEv.exit:                ; preds = %._ZN6icu_775Edits9growArrayEv.exit_crit_edge, %29
  %.pre3 = phi i32 [ %.pre3.pre, %._ZN6icu_775Edits9growArrayEv.exit_crit_edge ], [ %31, %29 ]
  store ptr %25, ptr %0, align 8, !tbaa !15
  store i32 %.07.i, ptr %5, align 8, !tbaa !22
  br label %38

38:                                               ; preds = %_ZN6icu_775Edits9growArrayEv.exit, %2
  %39 = phi i32 [ %.pre3, %_ZN6icu_775Edits9growArrayEv.exit ], [ %4, %2 ]
  %40 = phi ptr [ %25, %_ZN6icu_775Edits9growArrayEv.exit ], [ %.pre, %2 ]
  %41 = trunc i32 %1 to i16
  %42 = add nsw i32 %39, 1
  store i32 %42, ptr %3, align 4, !tbaa !21
  %43 = sext i32 %39 to i64
  %44 = getelementptr inbounds i16, ptr %40, i64 %43
  store i16 %41, ptr %44, align 2, !tbaa !23
  br label %_ZN6icu_775Edits9growArrayEv.exit.thread

_ZN6icu_775Edits9growArrayEv.exit.thread:         ; preds = %27, %13, %20, %38
  ret void
}